target datalayout = "e-m:e-p270:32:32-p271:32:32-p272:64:64-i64:64-i128:128-f80:128-n8:16:32:64-S128"
target triple = "x86_64-pc-linux-gnu"

%struct.reassembly_table = type { ptr, ptr, ptr, ptr, ptr }
%struct.reassembly_table_functions = type { ptr, ptr, ptr, ptr, ptr, ptr }

@coap_tmf_media_type_dissector_table = internal global ptr null, align 8
@proto_register_coap.ett = internal global [5 x ptr] [ptr @ett_coap, ptr @ett_block, ptr @ett_blocks, ptr getelementptr (i8, ptr @dissect_coap_hf, i64 184), ptr getelementptr (i8, ptr @dissect_coap_hf, i64 188)], align 16
@.str.175 = private unnamed_addr constant [33 x i8] c"Constrained Application Protocol\00", align 1
@.str.176 = private unnamed_addr constant [5 x i8] c"CoAP\00", align 1
@.str.177 = private unnamed_addr constant [5 x i8] c"coap\00", align 1
@proto_coap = internal global i32 0, align 4
@coap_block_reassembly_table = internal global %struct.reassembly_table zeroinitializer, align 8
@addresses_reassembly_table_functions = external constant %struct.reassembly_table_functions, align 8
@coap_other_handle = internal global ptr null, align 8
@.str.178 = private unnamed_addr constant [13 x i8] c"coap_tcp_tls\00", align 1
@coap_tcp_tls_handle = internal global ptr null, align 8
@.str.179 = private unnamed_addr constant [13 x i8] c"coap_for_tmf\00", align 1
@.str.180 = private unnamed_addr constant [9 x i8] c"CoAP-TMF\00", align 1
@proto_coap_for_tmf = internal global i32 0, align 4
@coap_for_tmf_handle = internal global ptr null, align 8
@.str.181 = private unnamed_addr constant [20 x i8] c"coap_tmf_media_type\00", align 1
@.str.182 = private unnamed_addr constant [33 x i8] c"Internet media type for CoAP-TMF\00", align 1

; Function Attrs: null_pointer_is_valid sspstrong uwtable
define hidden void @proto_register_coap() #1 {
  %1 = alloca ptr, align 8
  call void @llvm.lifetime.start.p0(i64 8, ptr %1) #11
  %2 = call i32 @proto_register_protocol(ptr noundef @.str.175, ptr noundef @.str.176, ptr noundef @.str.177)
  store i32 %2, ptr @proto_coap, align 4
  %3 = load i32, ptr @proto_coap, align 4
  call void @proto_register_field_array(i32 noundef %3, ptr noundef @proto_register_coap.hf, i32 noundef 72)
  call void @proto_register_subtree_array(ptr noundef @proto_register_coap.ett, i32 noundef 5)
  %4 = load i32, ptr @proto_coap, align 4
  %5 = call ptr @expert_register_protocol(i32 noundef %4)
  store ptr %5, ptr %1, align 8
  %6 = load ptr, ptr %1, align 8
  call void @expert_register_field_array(ptr noundef %6, ptr noundef @proto_register_coap.ei, i32 noundef 6)
  call void @reassembly_table_register(ptr noundef @coap_block_reassembly_table, ptr noundef @addresses_reassembly_table_functions)
  %7 = load i32, ptr @proto_coap, align 4
  %8 = call ptr @register_dissector(ptr noundef @.str.177, ptr noundef @dissect_coap_other, i32 noundef %7)
  store ptr %8, ptr @coap_other_handle, align 8
  %9 = load i32, ptr @proto_coap, align 4
  %10 = call ptr @register_dissector(ptr noundef @.str.178, ptr noundef @dissect_coap_tcp_tls, i32 noundef %9)
  store ptr %10, ptr @coap_tcp_tls_handle, align 8
  %11 = load i32, ptr @proto_coap_for_tmf, align 4
  %12 = call ptr @register_dissector_with_description(ptr noundef @.str.179, ptr noundef @.str.180, ptr noundef @dissect_coap_for_tmf, i32 noundef %11)
  store ptr %12, ptr @coap_for_tmf_handle, align 8
  %13 = load i32, ptr @proto_coap, align 4
  %14 = call ptr @register_dissector_table(ptr noundef @.str.181, ptr noundef @.str.182, i32 noundef %13, i32 noundef 26, i32 noundef 1)
  store ptr %14, ptr @coap_tmf_media_type_dissector_table, align 8
  call void @llvm.lifetime.end.p0(i64 8, ptr %1) #11
  ret void
}