; Function Attrs: null_pointer_is_valid sspstrong uwtable
define hidden void @proto_register_coap() local_unnamed_addr #1 {
  %1 = tail call i32 @proto_register_protocol(ptr noundef nonnull @.str.175, ptr noundef nonnull @.str.176, ptr noundef nonnull @.str.177)
  store i32 %1, ptr @proto_coap, align 4
  tail call void @proto_register_field_array(i32 noundef %1, ptr noundef nonnull @proto_register_coap.hf, i32 noundef 72)
  tail call void @proto_register_subtree_array(ptr noundef nonnull @proto_register_coap.ett, i32 noundef 5)
  %2 = load i32, ptr @proto_coap, align 4
  %3 = tail call ptr @expert_register_protocol(i32 noundef %2)
  tail call void @expert_register_field_array(ptr noundef %3, ptr noundef nonnull @proto_register_coap.ei, i32 noundef 6)
  tail call void @reassembly_table_register(ptr noundef nonnull @coap_block_reassembly_table, ptr noundef nonnull @addresses_reassembly_table_functions)
  %4 = load i32, ptr @proto_coap, align 4
  %5 = tail call ptr @register_dissector(ptr noundef nonnull @.str.177, ptr noundef nonnull @dissect_coap_other, i32 noundef %4)
  store ptr %5, ptr @coap_other_handle, align 8
  %6 = load i32, ptr @proto_coap, align 4
  %7 = tail call ptr @register_dissector(ptr noundef nonnull @.str.178, ptr noundef nonnull @dissect_coap_tcp_tls, i32 noundef %6)
  store ptr %7, ptr @coap_tcp_tls_handle, align 8
  %8 = tail call ptr @register_dissector_with_description(ptr noundef nonnull @.str.179, ptr noundef nonnull @.str.180, ptr noundef nonnull @dissect_coap_for_tmf, i32 noundef 0)
  store ptr %8, ptr @coap_for_tmf_handle, align 8
  %9 = load i32, ptr @proto_coap, align 4
  %10 = tail call ptr @register_dissector_table(ptr noundef nonnull @.str.181, ptr noundef nonnull @.str.182, i32 noundef %9, i32 noundef 26, i32 noundef 1)
  store ptr %10, ptr @coap_tmf_media_type_dissector_table, align 8
  ret void
}